target datalayout = "e-m:e-p270:32:32-p271:32:32-p272:64:64-i64:64-i128:128-f80:128-n8:16:32:64-S128"
target triple = "x86_64-pc-linux-gnu"

%class.RegMask = type { %union.anon, i32, i32 }
%union.anon = type { [11 x i64] }
%class.MachNode = type { %class.Node.base, i8, i16, ptr }
%class.Node.base = type <{ ptr, ptr, ptr, i32, i32, i32, i32, i32, i32, i32 }>
%class.MoveVL2FNode = type { %class.MachNode, [2 x ptr], ptr }

@_ZN19Abstract_VM_Version9_featuresE = external global i64, align 8
@_STACK_OR_FLOAT_REG_EVEX_mask = external global %class.RegMask, align 8
@_STACK_OR_FLOAT_REG_LEGACY_mask = external global %class.RegMask, align 8

; Function Attrs: mustprogress nounwind uwtable
define linkonce_odr hidden noundef nonnull align 8 dereferenceable(96) ptr @_Z30STACK_OR_FLOAT_REG_LEGACY_maskv() #1 comdat {
  ret ptr @_STACK_OR_FLOAT_REG_LEGACY_mask
}

; Function Attrs: mustprogress nounwind uwtable
define linkonce_odr hidden noundef nonnull align 8 dereferenceable(96) ptr @_Z28STACK_OR_FLOAT_REG_EVEX_maskv() #1 comdat {
  ret ptr @_STACK_OR_FLOAT_REG_EVEX_mask
}

; Function Attrs: mustprogress nounwind uwtable
define linkonce_odr hidden noundef zeroext i1 @_ZN10VM_Version17supports_avx512vlEv() #1 comdat align 2 {
  %1 = load i64, ptr @_ZN19Abstract_VM_Version9_featuresE, align 8
  %2 = and i64 %1, 8589934592
  %3 = icmp ne i64 %2, 0
  ret i1 %3
}

; Function Attrs: mustprogress nounwind uwtable
define linkonce_odr hidden noundef zeroext i1 @_ZN10VM_Version13supports_evexEv() #1 comdat align 2 {
  %1 = load i64, ptr @_ZN19Abstract_VM_Version9_featuresE, align 8
  %2 = and i64 %1, 134217728
  %3 = icmp ne i64 %2, 0
  ret i1 %3
}

; Function Attrs: mustprogress nounwind uwtable
define linkonce_odr hidden noundef nonnull align 8 dereferenceable(96) ptr @_Z26STACK_OR_FLOAT_REG_VL_maskv() #1 comdat {
  %1 = call noundef zeroext i1 @_ZN10VM_Version13supports_evexEv()
  br i1 %1, label %2, label %6

2:                                                ; preds = %0
  %3 = call noundef zeroext i1 @_ZN10VM_Version17supports_avx512vlEv()
  br i1 %3, label %4, label %6

4:                                                ; preds = %2
  %5 = call noundef nonnull align 8 dereferenceable(96) ptr @_Z28STACK_OR_FLOAT_REG_EVEX_maskv()
  br label %8

6:                                                ; preds = %2, %0
  %7 = call noundef nonnull align 8 dereferenceable(96) ptr @_Z30STACK_OR_FLOAT_REG_LEGACY_maskv()
  br label %8

8:                                                ; preds = %6, %4
  %9 = phi ptr [ %5, %4 ], [ %7, %6 ]
  ret ptr %9
}

; Function Attrs: mustprogress nounwind uwtable
define hidden void @_ZN12MoveVL2FNode16use_cisc_RegMaskEv(ptr noundef nonnull align 8 dereferenceable(88) %0) unnamed_addr #1 align 2 {
  %2 = alloca ptr, align 8
  store ptr %0, ptr %2, align 8
  %3 = load ptr, ptr %2, align 8
  %4 = call noundef nonnull align 8 dereferenceable(96) ptr @_Z26STACK_OR_FLOAT_REG_VL_maskv()
  %5 = getelementptr inbounds %class.MoveVL2FNode, ptr %3, i32 0, i32 2
  store ptr %4, ptr %5, align 8
  ret void
}