; Function Attrs: mustprogress nofree norecurse nosync nounwind willreturn memory(read, argmem: write, inaccessiblemem: none) uwtable
define hidden void @_ZN12MoveVL2FNode16use_cisc_RegMaskEv(ptr nocapture noundef nonnull writeonly align 8 dereferenceable(88) %0) unnamed_addr #12 align 2 {
  %2 = load i64, ptr @_ZN19Abstract_VM_Version9_featuresE, align 8
  %3 = and i64 %2, 8724152320
  %or.cond.i = icmp eq i64 %3, 8724152320
  %4 = select i1 %or.cond.i, ptr @_STACK_OR_FLOAT_REG_EVEX_mask, ptr @_STACK_OR_FLOAT_REG_LEGACY_mask
  %5 = getelementptr inbounds i8, ptr %0, i64 80
  store ptr %4, ptr %5, align 8
  ret void
}